; Function Attrs: mustprogress uwtable
define dso_local void @_ZN21cmCursesOptionsWidget14PreviousOptionEv(ptr noundef nonnull align 8 dereferenceable(96) %0) local_unnamed_addr #0 align 2 {
  %2 = getelementptr inbounds i8, ptr %0, i64 88
  %3 = load i64, ptr %2, align 8
  %4 = icmp eq i64 %3, 0
  %5 = getelementptr inbounds i8, ptr %0, i64 64
  %6 = getelementptr inbounds i8, ptr %0, i64 72
  %7 = load ptr, ptr %6, align 8
  %8 = load ptr, ptr %5, align 8
  %9 = ptrtoint ptr %7 to i64
  %10 = ptrtoint ptr %8 to i64
  %11 = sub i64 %9, %10
  %12 = ashr exact i64 %11, 5
  %storemerge.in = select i1 %4, i64 %12, i64 %3
  %storemerge = add i64 %storemerge.in, -1
  store i64 %storemerge, ptr %2, align 8
  %13 = getelementptr inbounds %"class.std::__cxx11::basic_string", ptr %8, i64 %storemerge
  %14 = load ptr, ptr %0, align 8
  %15 = getelementptr inbounds i8, ptr %14, i64 32
  %16 = load ptr, ptr %15, align 8
  tail call void %16(ptr noundef nonnull align 8 dereferenceable(60) %0, ptr noundef nonnull align 8 dereferenceable(32) %13)
  ret void
}